ccopy_reg
_reconstructor
p0
(cgoogle.oauth2.credentials
Credentials
p1
c__builtin__
object
p2
Ntp3
Rp4
(dp5
S'_quota_project_id'
p6
NsS'_token_uri'
p7
Vhttps://oauth2.googleapis.com/token
p8
sS'_client_secret'
p9
V-2GVF4pzCnZU_I_nrpJ8JwLs
p10
sS'_id_token'
p11
NsS'token'
p12
Vya29.a0AfH6SMDVL5CJlQvoJdsHXc_pCrQd-HRJXzYOiK-LGZsybEeeQS6BqgXBBpgaW4B2Fkb0v5ittPq38qu08zRb2Kn66gqddoBDOJ3Ydpd_iW4Z4YWkiFmtKPHiNcR7iN0HNGVJ6qop_jrEGZYMUnPOCg_r0jovv5yMn4U
p13
sS'_refresh_token'
p14
V1//09XA6xH7K5CbgCgYIARAAGAkSNwF-L9Ir11HCzeU-ntlAcQlETA3Ob_Bwd5mQFqF67jCLpcUjR3mjb3uiHWdnXmfRiK5PEvmrVys
p15
sS'_scopes'
p16
(lp17
S'https://www.googleapis.com/auth/calendar.readonly'
p18
asS'_client_id'
p19
V153203571313-nsisp7lbrpgvt1qqidoiubb48leuudo1.apps.googleusercontent.com
p20
sS'expiry'
p21
cdatetime
datetime
p22
(S'\x07\xe4\x08\x06\x0b\x06\x1a\x02\xf2R'
p23
tp24
Rp25
sb.